target datalayout = "e-m:e-p270:32:32-p271:32:32-p272:64:64-i64:64-i128:128-f80:128-n8:16:32:64-S128"
target triple = "x86_64-pc-linux-gnu"

%struct.H5C_class_t = type { i32, ptr, i32, i32, ptr, ptr, ptr, ptr, ptr, ptr, ptr, ptr, ptr, ptr }
%struct.H5F_t = type { ptr, ptr, ptr, ptr, i32, ptr, i8, i8, ptr, i32 }
%struct.H5F_shared_t = type { ptr, ptr, ptr, i8, i32, i32, %struct.H5F_mtab_t, ptr, i8, i8, i64, i32, i32, i64, i64, ptr, ptr, %struct.H5AC_cache_config_t, %struct.H5AC_cache_image_config_t, i8, i8, ptr, i64, i32, i8, i64, i64, double, i64, i64, i64, i32, i32, i32, i8, i32, ptr, ptr, ptr, ptr, i8, i8, i8, i64, ptr, ptr, i32, i64, i8, i32, i8, i64, i8, [13 x i32], [13 x i64], [13 x ptr], i8, i64, i64, [7 x i32], [7 x i32], %struct.H5F_blk_aggr_t, %struct.H5F_blk_aggr_t, i64, i64, %struct.H5F_meta_accum_t, i32, i32, [30 x ptr], %struct.H5F_object_flush_t, i8, ptr }
%struct.H5F_mtab_t = type { i32, i32, ptr }
%struct.H5AC_cache_config_t = type { i32, i8, i8, i8, [1025 x i8], i8, i8, i64, double, i64, i64, i64, i32, double, double, i8, i64, i32, double, double, i32, double, double, i8, i64, i32, i8, double, i64, i32 }
%struct.H5AC_cache_image_config_t = type { i32, i8, i8, i32 }
%struct.H5F_blk_aggr_t = type { i64, i64, i64, i64, i64 }
%struct.H5F_meta_accum_t = type { ptr, i64, i64, i64, i64, i64, i8 }
%struct.H5F_object_flush_t = type { ptr, ptr }
%struct.H5C_cache_image_ctl_t = type { i32, i8, i8, i32, i32 }
%struct.H5C_t = type { i8, ptr, ptr, i32, ptr, i64, i64, ptr, i8, ptr, i8, i8, i32, i64, [6 x i32], [6 x i64], i64, [6 x i64], i64, [6 x i64], [65536 x ptr], i32, i64, ptr, ptr, i64, ptr, ptr, i8, i8, i32, i64, [6 x i32], [6 x i64], ptr, i32, ptr, i8, i32, i32, i64, ptr, ptr, i32, i64, ptr, ptr, i32, i64, ptr, ptr, i8, i8, i64, i8, i8, i8, i8, i8, i8, %struct.H5C_auto_size_ctl_t, i32, [10 x i8], [11 x i32], i32, i32, i32, [10 x %struct.H5C_cache_entry_t], i64, i64, %struct.H5C_cache_image_ctl_t, i8, i8, i8, i8, i64, i64, i64, i64, i64, i64, i64, i32, ptr, ptr, i8, i8, [32 x i8] }
%struct.H5C_auto_size_ctl_t = type { i32, ptr, i8, i64, double, i64, i64, i64, i32, double, double, i8, i64, i32, double, double, i32, double, double, i8, i64, i32, i8, double }
%struct.H5C_cache_entry_t = type { ptr, i64, i64, ptr, i8, ptr, i8, i8, i8, i8, i32, i8, i8, i8, i8, i8, i32, ptr, i32, i32, i32, i32, i32, i8, i8, ptr, ptr, ptr, ptr, ptr, ptr, i8, i32, i8, i64, ptr, i64, i64, i32, i8, i32, i32, i8, ptr, ptr, ptr }
%struct.H5C_log_info_t = type { i8, i8, ptr, ptr }

@H5AC_init_g = global i8 0, align 1
@H5_libterm_g = external global i8, align 1
@.str = private unnamed_addr constant [98 x i8] c"generated/home/dtcxzyw/WorkSpace/Projects/compilers/llvm-opt-benchmark/bench/hdf5/hdf5/src/H5AC.c\00", align 1
@H5E_FUNC_g = external global i64, align 8
@H5E_CANTINIT_g = external global i64, align 8
@.str.1 = private unnamed_addr constant [32 x i8] c"interface initialization failed\00", align 1
@H5E_CACHE_g = external global i64, align 8
@H5E_LOGGING_g = external global i64, align 8
@.str.7 = private unnamed_addr constant [27 x i8] c"unable to emit log message\00", align 1
@__func__.H5AC_expunge_entry = private unnamed_addr constant [19 x i8] c"H5AC_expunge_entry\00", align 1
@H5E_CANTEXPUNGE_g = external global i64, align 8
@.str.12 = private unnamed_addr constant [27 x i8] c"H5C_expunge_entry() failed\00", align 1

; Function Attrs: nounwind uwtable
define i32 @H5AC__init_package() #0 {
  %1 = load i8, ptr @H5AC_init_g, align 1, !tbaa !7, !range !9, !noundef !10
  %2 = trunc i8 %1 to i1
  br i1 %2, label %7, label %3

3:                                                ; preds = %0
  %4 = load i8, ptr @H5_libterm_g, align 1, !tbaa !7, !range !9, !noundef !10
  %5 = trunc i8 %4 to i1
  %6 = xor i1 %5, true
  br label %7

7:                                                ; preds = %3, %0
  %8 = phi i1 [ true, %0 ], [ %6, %3 ]
  %9 = xor i1 %8, true
  %10 = xor i1 %9, true
  %11 = zext i1 %10 to i32
  %12 = sext i32 %11 to i64
  %13 = call i64 @llvm.expect.i64(i64 %12, i64 1)
  %14 = icmp ne i64 %13, 0
  br i1 %14, label %15, label %16

15:                                               ; preds = %7
  br label %16

16:                                               ; preds = %15, %7
  ret i32 0
}

; Function Attrs: nounwind uwtable
define i32 @H5AC_expunge_entry(ptr noundef %0, ptr noundef %1, i64 noundef %2, i32 noundef %3) #0 {
  %5 = alloca ptr, align 8
  %6 = alloca ptr, align 8
  %7 = alloca i64, align 8
  %8 = alloca i32, align 4
  %9 = alloca i32, align 4
  %10 = alloca i8, align 1
  store ptr %0, ptr %5, align 8, !tbaa !13
  store ptr %1, ptr %6, align 8, !tbaa !78
  store i64 %2, ptr %7, align 8, !tbaa !11
  store i32 %3, ptr %8, align 4, !tbaa !3
  call void @llvm.lifetime.start.p0(i64 4, ptr %9) #6
  store i32 0, ptr %9, align 4, !tbaa !3
  call void @llvm.lifetime.start.p0(i64 1, ptr %10) #6
  store i8 0, ptr %10, align 1, !tbaa !7
  %11 = load i8, ptr @H5AC_init_g, align 1, !tbaa !7, !range !9, !noundef !10
  %12 = trunc i8 %11 to i1
  br i1 %12, label %17, label %13

13:                                               ; preds = %4
  %14 = load i8, ptr @H5_libterm_g, align 1, !tbaa !7, !range !9, !noundef !10
  %15 = trunc i8 %14 to i1
  %16 = xor i1 %15, true
  br label %17

17:                                               ; preds = %13, %4
  %18 = phi i1 [ false, %4 ], [ %16, %13 ]
  %19 = xor i1 %18, true
  %20 = xor i1 %19, true
  %21 = zext i1 %20 to i32
  %22 = sext i32 %21 to i64
  %23 = call i64 @llvm.expect.i64(i64 %22, i64 0)
  %24 = icmp ne i64 %23, 0
  br i1 %24, label %25, label %48

25:                                               ; preds = %17
  store i8 1, ptr @H5AC_init_g, align 1, !tbaa !7
  %26 = call i32 @H5AC__init_package()
  %27 = icmp slt i32 %26, 0
  br i1 %27, label %28, label %47

28:                                               ; preds = %25
  store i8 0, ptr @H5AC_init_g, align 1, !tbaa !7
  br label %29

29:                                               ; preds = %28
  br label %30

30:                                               ; preds = %29
  br label %31

31:                                               ; preds = %30
  %32 = load i64, ptr @H5E_FUNC_g, align 8, !tbaa !11
  %33 = load i64, ptr @H5E_CANTINIT_g, align 8, !tbaa !11
  %34 = call i32 (ptr, ptr, i32, i64, i64, ptr, ...) @H5E_printf_stack(ptr noundef @.str, ptr noundef @__func__.H5AC_expunge_entry, i32 noundef 583, i64 noundef %32, i64 noundef %33, ptr noundef @.str.1)
  br label %35

35:                                               ; preds = %31
  br label %36

36:                                               ; preds = %35
  store i8 1, ptr %10, align 1, !tbaa !7
  %37 = load i8, ptr %10, align 1, !tbaa !7, !range !9, !noundef !10
  %38 = trunc i8 %37 to i1
  %39 = zext i1 %38 to i8
  store i8 %39, ptr %10, align 1, !tbaa !7
  br label %40

40:                                               ; preds = %36
  br label %41

41:                                               ; preds = %40
  br label %42

42:                                               ; preds = %41
  store i32 -1, ptr %9, align 4, !tbaa !3
  br label %90

43:                                               ; No predecessors!
  br label %44

44:                                               ; preds = %43
  br label %45

45:                                               ; preds = %44
  br label %46

46:                                               ; preds = %45
  br label %47

47:                                               ; preds = %46, %25
  br label %48

48:                                               ; preds = %47, %17
  %49 = load i8, ptr @H5AC_init_g, align 1, !tbaa !7, !range !9, !noundef !10
  %50 = trunc i8 %49 to i1
  br i1 %50, label %55, label %51

51:                                               ; preds = %48
  %52 = load i8, ptr @H5_libterm_g, align 1, !tbaa !7, !range !9, !noundef !10
  %53 = trunc i8 %52 to i1
  %54 = xor i1 %53, true
  br label %55

55:                                               ; preds = %51, %48
  %56 = phi i1 [ true, %48 ], [ %54, %51 ]
  %57 = xor i1 %56, true
  %58 = xor i1 %57, true
  %59 = zext i1 %58 to i32
  %60 = sext i32 %59 to i64
  %61 = call i64 @llvm.expect.i64(i64 %60, i64 1)
  %62 = icmp ne i64 %61, 0
  br i1 %62, label %63, label %132

63:                                               ; preds = %55
  %64 = load ptr, ptr %5, align 8, !tbaa !13
  %65 = load ptr, ptr %6, align 8, !tbaa !78
  %66 = load i64, ptr %7, align 8, !tbaa !11
  %67 = load i32, ptr %8, align 4, !tbaa !3
  %68 = call i32 @H5C_expunge_entry(ptr noundef %64, ptr noundef %65, i64 noundef %66, i32 noundef %67)
  %69 = icmp slt i32 %68, 0
  br i1 %69, label %70, label %89

70:                                               ; preds = %63
  br label %71

71:                                               ; preds = %70
  br label %72

72:                                               ; preds = %71
  br label %73

73:                                               ; preds = %72
  %74 = load i64, ptr @H5E_CACHE_g, align 8, !tbaa !11
  %75 = load i64, ptr @H5E_CANTEXPUNGE_g, align 8, !tbaa !11
  %76 = call i32 (ptr, ptr, i32, i64, i64, ptr, ...) @H5E_printf_stack(ptr noundef @.str, ptr noundef @__func__.H5AC_expunge_entry, i32 noundef 594, i64 noundef %74, i64 noundef %75, ptr noundef @.str.12)
  br label %77

77:                                               ; preds = %73
  br label %78

78:                                               ; preds = %77
  store i8 1, ptr %10, align 1, !tbaa !7
  %79 = load i8, ptr %10, align 1, !tbaa !7, !range !9, !noundef !10
  %80 = trunc i8 %79 to i1
  %81 = zext i1 %80 to i8
  store i8 %81, ptr %10, align 1, !tbaa !7
  br label %82

82:                                               ; preds = %78
  br label %83

83:                                               ; preds = %82
  br label %84

84:                                               ; preds = %83
  store i32 -1, ptr %9, align 4, !tbaa !3
  br label %90

85:                                               ; No predecessors!
  br label %86

86:                                               ; preds = %85
  br label %87

87:                                               ; preds = %86
  br label %88

88:                                               ; preds = %87
  br label %89

89:                                               ; preds = %88, %63
  br label %90

90:                                               ; preds = %89, %84, %42
  %91 = load ptr, ptr %5, align 8, !tbaa !13
  %92 = getelementptr inbounds nuw %struct.H5F_t, ptr %91, i32 0, i32 2
  %93 = load ptr, ptr %92, align 8, !tbaa !16
  %94 = getelementptr inbounds nuw %struct.H5F_shared_t, ptr %93, i32 0, i32 16
  %95 = load ptr, ptr %94, align 8, !tbaa !22
  %96 = getelementptr inbounds nuw %struct.H5C_t, ptr %95, i32 0, i32 1
  %97 = load ptr, ptr %96, align 8, !tbaa !56
  %98 = getelementptr inbounds nuw %struct.H5C_log_info_t, ptr %97, i32 0, i32 1
  %99 = load i8, ptr %98, align 1, !tbaa !64, !range !9, !noundef !10
  %100 = trunc i8 %99 to i1
  br i1 %100, label %101, label %131

101:                                              ; preds = %90
  %102 = load ptr, ptr %5, align 8, !tbaa !13
  %103 = getelementptr inbounds nuw %struct.H5F_t, ptr %102, i32 0, i32 2
  %104 = load ptr, ptr %103, align 8, !tbaa !16
  %105 = getelementptr inbounds nuw %struct.H5F_shared_t, ptr %104, i32 0, i32 16
  %106 = load ptr, ptr %105, align 8, !tbaa !22
  %107 = load i64, ptr %7, align 8, !tbaa !11
  %108 = load ptr, ptr %6, align 8, !tbaa !78
  %109 = getelementptr inbounds nuw %struct.H5C_class_t, ptr %108, i32 0, i32 0
  %110 = load i32, ptr %109, align 8, !tbaa !80
  %111 = load i32, ptr %9, align 4, !tbaa !3
  %112 = call i32 @H5C_log_write_expunge_entry_msg(ptr noundef %106, i64 noundef %107, i32 noundef %110, i32 noundef %111)
  %113 = icmp slt i32 %112, 0
  br i1 %113, label %114, label %130

114:                                              ; preds = %101
  br label %115

115:                                              ; preds = %114
  br label %116

116:                                              ; preds = %115
  br label %117

117:                                              ; preds = %116
  %118 = load i64, ptr @H5E_CACHE_g, align 8, !tbaa !11
  %119 = load i64, ptr @H5E_LOGGING_g, align 8, !tbaa !11
  %120 = call i32 (ptr, ptr, i32, i64, i64, ptr, ...) @H5E_printf_stack(ptr noundef @.str, ptr noundef @__func__.H5AC_expunge_entry, i32 noundef 600, i64 noundef %118, i64 noundef %119, ptr noundef @.str.7)
  br label %121

121:                                              ; preds = %117
  br label %122

122:                                              ; preds = %121
  store i8 1, ptr %10, align 1, !tbaa !7
  %123 = load i8, ptr %10, align 1, !tbaa !7, !range !9, !noundef !10
  %124 = trunc i8 %123 to i1
  %125 = zext i1 %124 to i8
  store i8 %125, ptr %10, align 1, !tbaa !7
  br label %126

126:                                              ; preds = %122
  br label %127

127:                                              ; preds = %126
  store i32 -1, ptr %9, align 4, !tbaa !3
  br label %128

128:                                              ; preds = %127
  br label %129

129:                                              ; preds = %128
  br label %130

130:                                              ; preds = %129, %101
  br label %131

131:                                              ; preds = %130, %90
  br label %132

132:                                              ; preds = %131, %55
  %133 = load i32, ptr %9, align 4, !tbaa !3
  call void @llvm.lifetime.end.p0(i64 1, ptr %10) #6
  call void @llvm.lifetime.end.p0(i64 4, ptr %9) #6
  ret i32 %133
}