; Function Attrs: nounwind uwtable
define range(i32 -1, 1) i32 @H5AC_expunge_entry(ptr noundef %0, ptr noundef %1, i64 noundef %2, i32 noundef %3) local_unnamed_addr #4 {
  %5 = load i8, ptr @H5AC_init_g, align 1, !tbaa !3, !range !7, !noundef !8
  %6 = trunc nuw i8 %5 to i1
  %7 = load i8, ptr @H5_libterm_g, align 1, !range !7
  %8 = trunc nuw i8 %7 to i1
  %9 = select i1 %6, i1 true, i1 %8
  br i1 %9, label %10, label %.thread, !prof !9

.thread:                                          ; preds = %4
  store i8 1, ptr @H5AC_init_g, align 1, !tbaa !3
  br label %13

10:                                               ; preds = %4
  %11 = xor i1 %8, true
  %12 = select i1 %6, i1 true, i1 %11
  br i1 %12, label %13, label %38, !prof !41

13:                                               ; preds = %.thread, %10
  %14 = tail call i32 @H5C_expunge_entry(ptr noundef %0, ptr noundef %1, i64 noundef %2, i32 noundef %3) #8
  %15 = icmp slt i32 %14, 0
  br i1 %15, label %16, label %20

16:                                               ; preds = %13
  %17 = load i64, ptr @H5E_CACHE_g, align 8, !tbaa !42
  %18 = load i64, ptr @H5E_CANTEXPUNGE_g, align 8, !tbaa !42
  %19 = tail call i32 (ptr, ptr, i32, i64, i64, ptr, ...) @H5E_printf_stack(ptr noundef nonnull @.str, ptr noundef nonnull @__func__.H5AC_expunge_entry, i32 noundef 594, i64 noundef %17, i64 noundef %18, ptr noundef nonnull @.str.12) #8
  br label %20

20:                                               ; preds = %13, %16
  %.0 = phi i32 [ -1, %16 ], [ 0, %13 ]
  %21 = getelementptr inbounds nuw i8, ptr %0, i64 16
  %22 = load ptr, ptr %21, align 8, !tbaa !11
  %23 = getelementptr inbounds nuw i8, ptr %22, i64 112
  %24 = load ptr, ptr %23, align 8, !tbaa !20
  %25 = getelementptr inbounds nuw i8, ptr %24, i64 8
  %26 = load ptr, ptr %25, align 8, !tbaa !52
  %27 = getelementptr inbounds nuw i8, ptr %26, i64 1
  %28 = load i8, ptr %27, align 1, !tbaa !60, !range !7, !noundef !8
  %29 = trunc nuw i8 %28 to i1
  br i1 %29, label %30, label %38

30:                                               ; preds = %20
  %31 = load i32, ptr %1, align 8, !tbaa !116
  %32 = tail call i32 @H5C_log_write_expunge_entry_msg(ptr noundef nonnull %24, i64 noundef %2, i32 noundef %31, i32 noundef %.0) #8
  %33 = icmp slt i32 %32, 0
  br i1 %33, label %34, label %38

34:                                               ; preds = %30
  %35 = load i64, ptr @H5E_CACHE_g, align 8, !tbaa !42
  %36 = load i64, ptr @H5E_LOGGING_g, align 8, !tbaa !42
  %37 = tail call i32 (ptr, ptr, i32, i64, i64, ptr, ...) @H5E_printf_stack(ptr noundef nonnull @.str, ptr noundef nonnull @__func__.H5AC_expunge_entry, i32 noundef 600, i64 noundef %35, i64 noundef %36, ptr noundef nonnull @.str.7) #8
  br label %38

38:                                               ; preds = %20, %34, %30, %10
  %.1 = phi i32 [ -1, %34 ], [ %.0, %30 ], [ %.0, %20 ], [ 0, %10 ]
  ret i32 %.1
}